
_interrupt:
	MOVWF      R15+0
	SWAPF      STATUS+0, 0
	CLRF       STATUS+0
	MOVWF      ___saveSTATUS+0
	MOVF       PCLATH+0, 0
	MOVWF      ___savePCLATH+0
	CLRF       PCLATH+0

;Elec_water.c,40 :: 		void interrupt() {
;Elec_water.c,41 :: 		TMR0 = 155;                          // every time enter the interrupt restart the 1 ms
	MOVLW      155
	MOVWF      TMR0+0
;Elec_water.c,43 :: 		if(Temp_Setting==Temp_Setting_ON){     // if the setting mode is on start count for the 5 s
	MOVF       _Temp_Setting+0, 0
	XORLW      1
	BTFSS      STATUS+0, 2
	GOTO       L_interrupt0
;Elec_water.c,44 :: 		cnt_5s_Flag++;
	MOVF       _cnt_5s_Flag+0, 0
	ADDLW      1
	MOVWF      R0+0
	MOVLW      0
	BTFSC      STATUS+0, 0
	ADDLW      1
	ADDWF      _cnt_5s_Flag+1, 0
	MOVWF      R0+1
	MOVF       R0+0, 0
	MOVWF      _cnt_5s_Flag+0
	MOVF       R0+1, 0
	MOVWF      _cnt_5s_Flag+1
;Elec_water.c,46 :: 		}
L_interrupt0:
;Elec_water.c,48 :: 		if( TempSet_Flag==1){      // if the heater start to work ..counter flag start counting
	MOVF       _TempSet_Flag+0, 0
	XORLW      1
	BTFSS      STATUS+0, 2
	GOTO       L_interrupt1
;Elec_water.c,49 :: 		cnt_Temp_Read_Flag++;
	INCF       _cnt_Temp_Read_Flag+0, 0
	MOVWF      R0+0
	MOVF       R0+0, 0
	MOVWF      _cnt_Temp_Read_Flag+0
;Elec_water.c,51 :: 		}
L_interrupt1:
;Elec_water.c,52 :: 		if( flag_heat_element_on==1)  // if heater element is on flag start to flash heater led
	MOVF       _flag_heat_element_on+0, 0
	XORLW      1
	BTFSS      STATUS+0, 2
	GOTO       L_interrupt2
;Elec_water.c,54 :: 		HEAT_Read_Flag++;
	INCF       _HEAT_Read_Flag+0, 1
	BTFSC      STATUS+0, 2
	INCF       _HEAT_Read_Flag+1, 1
;Elec_water.c,55 :: 		}
L_interrupt2:
;Elec_water.c,58 :: 		if((cnt_5s_Flag%1000)==0){     // ever 1000 ms = 1s the heater led is toggled or flash
	MOVLW      232
	MOVWF      R4+0
	MOVLW      3
	MOVWF      R4+1
	MOVF       _cnt_5s_Flag+0, 0
	MOVWF      R0+0
	MOVF       _cnt_5s_Flag+1, 0
	MOVWF      R0+1
	CALL       _Div_16X16_U+0
	MOVF       R8+0, 0
	MOVWF      R0+0
	MOVF       R8+1, 0
	MOVWF      R0+1
	MOVLW      0
	XORWF      R0+1, 0
	BTFSS      STATUS+0, 2
	GOTO       L__interrupt59
	MOVLW      0
	XORWF      R0+0, 0
L__interrupt59:
	BTFSS      STATUS+0, 2
	GOTO       L_interrupt3
;Elec_water.c,59 :: 		Display_delay_Flag^=1;
	MOVLW      1
	XORWF      _Display_delay_Flag+0, 1
;Elec_water.c,60 :: 		}
L_interrupt3:
;Elec_water.c,62 :: 		if(cnt_5s_Flag==5000){        // check if the 5000ms=5 seconds are finished  turn off the setting mode and set flag to start heating or cooling
	MOVF       _cnt_5s_Flag+1, 0
	XORLW      19
	BTFSS      STATUS+0, 2
	GOTO       L__interrupt60
	MOVLW      136
	XORWF      _cnt_5s_Flag+0, 0
L__interrupt60:
	BTFSS      STATUS+0, 2
	GOTO       L_interrupt4
;Elec_water.c,63 :: 		Temp_Setting=Temp_Setting_OFF;
	CLRF       _Temp_Setting+0
;Elec_water.c,64 :: 		TempSet_Flag=1;                       // flag mean that temperature is set
	MOVLW      1
	MOVWF      _TempSet_Flag+0
;Elec_water.c,65 :: 		}
L_interrupt4:
;Elec_water.c,67 :: 		if (cnt_Temp_Read_Flag==100){           // counter flag to read the water temperature every 100ms //every time after read in the main the flag cleared
	MOVF       _cnt_Temp_Read_Flag+0, 0
	XORLW      100
	BTFSS      STATUS+0, 2
	GOTO       L_interrupt5
;Elec_water.c,68 :: 		Temp_Read_Flag=1;                  //flag for read in the main
	MOVLW      1
	MOVWF      _Temp_Read_Flag+0
;Elec_water.c,69 :: 		ADC_Start_Conv();                 // start conversion the ADC to reduce the delay when reading the value of ADC register
	CALL       _ADC_Start_Conv+0
;Elec_water.c,70 :: 		}
L_interrupt5:
;Elec_water.c,72 :: 		if ((HEAT_Read_Flag%1000)==0) {      //counter flag to flash the heater led every 1000ms=1s
	MOVLW      232
	MOVWF      R4+0
	MOVLW      3
	MOVWF      R4+1
	MOVF       _HEAT_Read_Flag+0, 0
	MOVWF      R0+0
	MOVF       _HEAT_Read_Flag+1, 0
	MOVWF      R0+1
	CALL       _Div_16X16_U+0
	MOVF       R8+0, 0
	MOVWF      R0+0
	MOVF       R8+1, 0
	MOVWF      R0+1
	MOVLW      0
	XORWF      R0+1, 0
	BTFSS      STATUS+0, 2
	GOTO       L__interrupt61
	MOVLW      0
	XORWF      R0+0, 0
L__interrupt61:
	BTFSS      STATUS+0, 2
	GOTO       L_interrupt6
;Elec_water.c,73 :: 		TOGGEL_Bit(PORTB,HEATER_LED );
	MOVLW      16
	XORWF      PORTB+0, 1
;Elec_water.c,75 :: 		if(HEAT_Read_Flag==60000){        //clear the counter flag to avoid the overflow as its size is 16 bit
	MOVF       _HEAT_Read_Flag+1, 0
	XORLW      234
	BTFSS      STATUS+0, 2
	GOTO       L__interrupt62
	MOVLW      96
	XORWF      _HEAT_Read_Flag+0, 0
L__interrupt62:
	BTFSS      STATUS+0, 2
	GOTO       L_interrupt7
;Elec_water.c,76 :: 		HEAT_Read_Flag=0;}
	CLRF       _HEAT_Read_Flag+0
	CLRF       _HEAT_Read_Flag+1
L_interrupt7:
;Elec_water.c,77 :: 		}
L_interrupt6:
;Elec_water.c,78 :: 		INTCON = 0x20;     // Bit T0IE is set, bit T0IF is cleared
	MOVLW      32
	MOVWF      INTCON+0
;Elec_water.c,79 :: 		}
L_end_interrupt:
L__interrupt58:
	MOVF       ___savePCLATH+0, 0
	MOVWF      PCLATH+0
	SWAPF      ___saveSTATUS+0, 0
	MOVWF      STATUS+0
	SWAPF      R15+0, 1
	SWAPF      R15+0, 0
	RETFIE
; end of _interrupt

_main:

;Elec_water.c,82 :: 		void main() {
;Elec_water.c,83 :: 		I2C1_Init(100000);
	MOVLW      50
	MOVWF      SSPADD+0
	CALL       _I2C1_Init+0
;Elec_water.c,85 :: 		tempreture_set =  E2PROM_Read(Temp_Address);    // load data from EEPROM address 2
	MOVLW      2
	MOVWF      FARG_E2PROM_Read_addr+0
	MOVLW      0
	MOVWF      FARG_E2PROM_Read_addr+1
	CALL       _E2PROM_Read+0
	MOVF       R0+0, 0
	MOVWF      _tempreture_set+0
;Elec_water.c,88 :: 		Timer0_Init();
	CALL       _Timer0_Init+0
;Elec_water.c,90 :: 		DIO_Inti();
	CALL       _DIO_Inti+0
;Elec_water.c,91 :: 		ADC_Init() ;
	CALL       _ADC_Init+0
;Elec_water.c,94 :: 		while(1)
L_main8:
;Elec_water.c,104 :: 		while( heater_state == HEATER_OFF)                {
L_main10:
	MOVF       _heater_state+0, 0
	XORLW      0
	BTFSS      STATUS+0, 2
	GOTO       L_main11
;Elec_water.c,106 :: 		if( !Read_Bit(PORTB,ON_OFF_BUTTON )){               // check if the ON/OFF button is pressed
	MOVF       PORTB+0, 0
	MOVWF      R1+0
	RRF        R1+0, 1
	BCF        R1+0, 7
	RRF        R1+0, 1
	BCF        R1+0, 7
	BTFSC      R1+0, 0
	GOTO       L_main12
;Elec_water.c,107 :: 		heater_state = HEATER_ON;                      //flag to change the heater state
	MOVLW      1
	MOVWF      _heater_state+0
;Elec_water.c,108 :: 		while( !Read_Bit(PORTB,ON_OFF_BUTTON ));
L_main13:
	MOVF       PORTB+0, 0
	MOVWF      R1+0
	RRF        R1+0, 1
	BCF        R1+0, 7
	RRF        R1+0, 1
	BCF        R1+0, 7
	BTFSC      R1+0, 0
	GOTO       L_main14
	GOTO       L_main13
L_main14:
;Elec_water.c,109 :: 		}
L_main12:
;Elec_water.c,111 :: 		if(flag_Heater_OFF==1){          // turn off all the seven segment ,heater,cooler ,led
	MOVF       _flag_Heater_OFF+0, 0
	XORLW      1
	BTFSS      STATUS+0, 2
	GOTO       L_main15
;Elec_water.c,113 :: 		Display_OFF();                 // as we didn't have to turn them many times
	CALL       _Display_OFF+0
;Elec_water.c,114 :: 		Cooler_Heater_OFF ();
	CALL       _Cooler_Heater_OFF+0
;Elec_water.c,115 :: 		flag_Heater_OFF=0;     }
	CLRF       _flag_Heater_OFF+0
L_main15:
;Elec_water.c,117 :: 		}
	GOTO       L_main10
L_main11:
;Elec_water.c,123 :: 		while(  heater_state == HEATER_ON ){
L_main16:
	MOVF       _heater_state+0, 0
	XORLW      1
	BTFSS      STATUS+0, 2
	GOTO       L_main17
;Elec_water.c,127 :: 		if (flag_Heater_OFF==0){    // when it turns from the OFF state to the ON state i take a shot from the water temperature
	MOVF       _flag_Heater_OFF+0, 0
	XORLW      0
	BTFSS      STATUS+0, 2
	GOTO       L_main18
;Elec_water.c,129 :: 		ADC_Start_Conv();
	CALL       _ADC_Start_Conv+0
;Elec_water.c,131 :: 		Water_Temp =Temp_calc();
	CALL       _Temp_calc+0
	MOVF       R0+0, 0
	MOVWF      _Water_Temp+0
	MOVF       R0+1, 0
	MOVWF      _Water_Temp+1
;Elec_water.c,133 :: 		flag_Heater_OFF=1;           // set the "flag_Heater_OFF" to turn off all when go to the OFF state
	MOVLW      1
	MOVWF      _flag_Heater_OFF+0
;Elec_water.c,134 :: 		}
L_main18:
;Elec_water.c,141 :: 		if( !Read_Bit(PORTB,ON_OFF_BUTTON ))         {
	MOVF       PORTB+0, 0
	MOVWF      R1+0
	RRF        R1+0, 1
	BCF        R1+0, 7
	RRF        R1+0, 1
	BCF        R1+0, 7
	BTFSC      R1+0, 0
	GOTO       L_main19
;Elec_water.c,143 :: 		heater_state = HEATER_OFF;
	CLRF       _heater_state+0
;Elec_water.c,145 :: 		while( !Read_Bit(PORTB,ON_OFF_BUTTON ));
L_main20:
	MOVF       PORTB+0, 0
	MOVWF      R1+0
	RRF        R1+0, 1
	BCF        R1+0, 7
	RRF        R1+0, 1
	BCF        R1+0, 7
	BTFSC      R1+0, 0
	GOTO       L_main21
	GOTO       L_main20
L_main21:
;Elec_water.c,147 :: 		}
	GOTO       L_main22
L_main19:
;Elec_water.c,154 :: 		if ( ((!Read_Bit(PORTB,UP_Button)) || (!Read_Bit(PORTB,DOWN_Button))) && (Temp_Setting==Temp_Setting_OFF) )   // press up , down for the first time , it just open the setting mode
	MOVF       PORTB+0, 0
	MOVWF      R1+0
	RRF        R1+0, 1
	BCF        R1+0, 7
	BTFSS      R1+0, 0
	GOTO       L__main56
	MOVF       PORTB+0, 0
	MOVWF      R1+0
	BTFSS      R1+0, 0
	GOTO       L__main56
	GOTO       L_main27
L__main56:
	MOVF       _Temp_Setting+0, 0
	XORLW      0
	BTFSS      STATUS+0, 2
	GOTO       L_main27
L__main55:
;Elec_water.c,157 :: 		TMR0 = 155;
	MOVLW      155
	MOVWF      TMR0+0
;Elec_water.c,158 :: 		cnt_5s_Flag=0;
	CLRF       _cnt_5s_Flag+0
	CLRF       _cnt_5s_Flag+1
;Elec_water.c,159 :: 		Enable_Timer0_Interrupt();
	CALL       _Enable_Timer0_Interrupt+0
;Elec_water.c,162 :: 		Temp_Setting=Temp_Setting_ON;            // open the setting mode and enable the counter flag on the interrupt to count
	MOVLW      1
	MOVWF      _Temp_Setting+0
;Elec_water.c,164 :: 		TempSet_Flag=0;                      // clear all the other flags
	CLRF       _TempSet_Flag+0
;Elec_water.c,165 :: 		cnt_Temp_Read_Flag=0;
	CLRF       _cnt_Temp_Read_Flag+0
;Elec_water.c,166 :: 		flag_heat_element_on=0;
	CLRF       _flag_heat_element_on+0
;Elec_water.c,168 :: 		Cooler_Heater_OFF ();                 // turn off cooler , heater  and the led
	CALL       _Cooler_Heater_OFF+0
;Elec_water.c,170 :: 		while((!Read_Bit(PORTB,UP_Button)) || (!Read_Bit(PORTB,DOWN_Button)));
L_main28:
	MOVF       PORTB+0, 0
	MOVWF      R1+0
	RRF        R1+0, 1
	BCF        R1+0, 7
	BTFSS      R1+0, 0
	GOTO       L__main54
	MOVF       PORTB+0, 0
	MOVWF      R1+0
	BTFSS      R1+0, 0
	GOTO       L__main54
	GOTO       L_main29
L__main54:
	GOTO       L_main28
L_main29:
;Elec_water.c,171 :: 		}
L_main27:
;Elec_water.c,177 :: 		while((Temp_Setting==Temp_Setting_ON)&& Read_Bit(PORTB,ON_OFF_BUTTON )){        // if flag is set and the on/off button don't be pressed
L_main32:
	MOVF       _Temp_Setting+0, 0
	XORLW      1
	BTFSS      STATUS+0, 2
	GOTO       L_main33
	MOVF       PORTB+0, 0
	MOVWF      R1+0
	RRF        R1+0, 1
	BCF        R1+0, 7
	RRF        R1+0, 1
	BCF        R1+0, 7
	BTFSS      R1+0, 0
	GOTO       L_main33
L__main53:
;Elec_water.c,179 :: 		if(!Read_Bit(PORTB,UP_Button)) {      //////////////  up button pressed    /////
	MOVF       PORTB+0, 0
	MOVWF      R1+0
	RRF        R1+0, 1
	BCF        R1+0, 7
	BTFSC      R1+0, 0
	GOTO       L_main36
;Elec_water.c,180 :: 		TMR0 = 155;                       // if the up button ,start to count the 5 s from the first
	MOVLW      155
	MOVWF      TMR0+0
;Elec_water.c,181 :: 		cnt_5s_Flag=0;                     // counter flag count the 5000ms in the interrupt
	CLRF       _cnt_5s_Flag+0
	CLRF       _cnt_5s_Flag+1
;Elec_water.c,183 :: 		Temp_Inc();                      // temp +=5;
	CALL       _Temp_Inc+0
;Elec_water.c,185 :: 		while(!Read_Bit(PORTB,UP_Button));
L_main37:
	MOVF       PORTB+0, 0
	MOVWF      R1+0
	RRF        R1+0, 1
	BCF        R1+0, 7
	BTFSC      R1+0, 0
	GOTO       L_main38
	GOTO       L_main37
L_main38:
;Elec_water.c,187 :: 		}
	GOTO       L_main39
L_main36:
;Elec_water.c,189 :: 		else if((! Read_Bit(PORTB,DOWN_Button)) ){      ////////DOWN  button pressed    ///
	MOVF       PORTB+0, 0
	MOVWF      R1+0
	BTFSC      R1+0, 0
	GOTO       L_main40
;Elec_water.c,190 :: 		TMR0 = 155;                         // if the down button ,start to count the 5 s from the first
	MOVLW      155
	MOVWF      TMR0+0
;Elec_water.c,191 :: 		cnt_5s_Flag=0;
	CLRF       _cnt_5s_Flag+0
	CLRF       _cnt_5s_Flag+1
;Elec_water.c,193 :: 		Temp_Dec();                       //  temp -=5;
	CALL       _Temp_Dec+0
;Elec_water.c,195 :: 		while(!Read_Bit(PORTB,DOWN_Button));
L_main41:
	MOVF       PORTB+0, 0
	MOVWF      R1+0
	BTFSC      R1+0, 0
	GOTO       L_main42
	GOTO       L_main41
L_main42:
;Elec_water.c,196 :: 		}
L_main40:
L_main39:
;Elec_water.c,199 :: 		if(Display_delay_Flag==1)     //the flag toggled every 1000ms so it flash the seven segment
	MOVF       _Display_delay_Flag+0, 0
	XORLW      1
	BTFSS      STATUS+0, 2
	GOTO       L_main43
;Elec_water.c,201 :: 		{ SEGMENT_Display_2Digit(tempreture_set) ; }
	MOVF       _tempreture_set+0, 0
	MOVWF      FARG_SEGMENT_Display_2Digit_num+0
	CALL       _SEGMENT_Display_2Digit+0
	GOTO       L_main44
L_main43:
;Elec_water.c,203 :: 		else {Display_OFF();}
	CALL       _Display_OFF+0
L_main44:
;Elec_water.c,205 :: 		}
	GOTO       L_main32
L_main33:
;Elec_water.c,209 :: 		while((TempSet_Flag==1)&& Read_Bit(PORTB,ON_OFF_BUTTON )&& Read_Bit(PORTB,UP_Button) && Read_Bit(PORTB,DOWN_Button)) {
L_main45:
	MOVF       _TempSet_Flag+0, 0
	XORLW      1
	BTFSS      STATUS+0, 2
	GOTO       L_main46
	MOVF       PORTB+0, 0
	MOVWF      R1+0
	RRF        R1+0, 1
	BCF        R1+0, 7
	RRF        R1+0, 1
	BCF        R1+0, 7
	BTFSS      R1+0, 0
	GOTO       L_main46
	MOVF       PORTB+0, 0
	MOVWF      R1+0
	RRF        R1+0, 1
	BCF        R1+0, 7
	BTFSS      R1+0, 0
	GOTO       L_main46
	MOVF       PORTB+0, 0
	MOVWF      R1+0
	BTFSS      R1+0, 0
	GOTO       L_main46
L__main52:
;Elec_water.c,211 :: 		Temp_Setting=Temp_Setting_OFF;
	CLRF       _Temp_Setting+0
;Elec_water.c,212 :: 		cnt_5s_Flag=0;
	CLRF       _cnt_5s_Flag+0
	CLRF       _cnt_5s_Flag+1
;Elec_water.c,213 :: 		Enable_Timer0_Interrupt();    //enable interrupt
	CALL       _Enable_Timer0_Interrupt+0
;Elec_water.c,216 :: 		if (Temp_Read_Flag==1){        // if flag " Temp_Read_Flag" set by the interrupt every 100ms read the water temp
	MOVF       _Temp_Read_Flag+0, 0
	XORLW      1
	BTFSS      STATUS+0, 2
	GOTO       L_main49
;Elec_water.c,217 :: 		TMR0 = 155;                 //restart count the 100ms
	MOVLW      155
	MOVWF      TMR0+0
;Elec_water.c,218 :: 		cnt_Temp_Read_Flag=0;
	CLRF       _cnt_Temp_Read_Flag+0
;Elec_water.c,220 :: 		Temp_Read_Flag=0;            // clear the flag to just waiting the by the interrupt
	CLRF       _Temp_Read_Flag+0
;Elec_water.c,222 :: 		Water_Temp = Temp_calc();    // read the ADC register
	CALL       _Temp_calc+0
	MOVF       R0+0, 0
	MOVWF      _Water_Temp+0
	MOVF       R0+1, 0
	MOVWF      _Water_Temp+1
;Elec_water.c,224 :: 		Temp_push( Water_Temp);      // push the value to an array to calculate the avrage
	MOVF       R0+0, 0
	MOVWF      FARG_Temp_push_Current_water_temp+0
	MOVF       R0+1, 0
	MOVWF      FARG_Temp_push_Current_water_temp+1
	CALL       _Temp_push+0
;Elec_water.c,225 :: 		}
L_main49:
;Elec_water.c,227 :: 		Water_Temp_Avg=(u8)Calculate_Temp_Avg();               //calculate the avg of 10 reads //the array start with 0 initial values
	CALL       _Calculate_Temp_Avg+0
	MOVF       R0+0, 0
	MOVWF      _Water_Temp_Avg+0
	CLRF       _Water_Temp_Avg+1
;Elec_water.c,229 :: 		if( ((Water_Temp_Avg)+5) < tempreture_set){
	MOVLW      5
	ADDWF      _Water_Temp_Avg+0, 0
	MOVWF      R1+0
	MOVF       _Water_Temp_Avg+1, 0
	BTFSC      STATUS+0, 0
	ADDLW      1
	MOVWF      R1+1
	MOVLW      0
	SUBWF      R1+1, 0
	BTFSS      STATUS+0, 2
	GOTO       L__main64
	MOVF       _tempreture_set+0, 0
	SUBWF      R1+0, 0
L__main64:
	BTFSC      STATUS+0, 0
	GOTO       L_main50
;Elec_water.c,230 :: 		flag_heat_element_on=1;                      // set the flag  to flash the led
	MOVLW      1
	MOVWF      _flag_heat_element_on+0
;Elec_water.c,231 :: 		HeaterON();                              //open heater
	CALL       _HeaterON+0
;Elec_water.c,232 :: 		}
L_main50:
;Elec_water.c,234 :: 		if( ((Water_Temp_Avg)-5) >  tempreture_set ) {
	MOVLW      5
	SUBWF      _Water_Temp_Avg+0, 0
	MOVWF      R1+0
	MOVLW      0
	BTFSS      STATUS+0, 0
	ADDLW      1
	SUBWF      _Water_Temp_Avg+1, 0
	MOVWF      R1+1
	MOVF       R1+1, 0
	SUBLW      0
	BTFSS      STATUS+0, 2
	GOTO       L__main65
	MOVF       R1+0, 0
	SUBWF      _tempreture_set+0, 0
L__main65:
	BTFSC      STATUS+0, 0
	GOTO       L_main51
;Elec_water.c,235 :: 		flag_heat_element_on=0;
	CLRF       _flag_heat_element_on+0
;Elec_water.c,236 :: 		Cooler_ON();
	CALL       _Cooler_ON+0
;Elec_water.c,237 :: 		SET_BIT(PORTB,HEATER_LED);                     //open the led
	BSF        PORTB+0, 4
;Elec_water.c,238 :: 		}
L_main51:
;Elec_water.c,242 :: 		SEGMENT_Display_2Digit(Water_Temp/10) ;
	MOVLW      10
	MOVWF      R4+0
	MOVLW      0
	MOVWF      R4+1
	MOVF       _Water_Temp+0, 0
	MOVWF      R0+0
	MOVF       _Water_Temp+1, 0
	MOVWF      R0+1
	CALL       _Div_16X16_U+0
	MOVF       R0+0, 0
	MOVWF      FARG_SEGMENT_Display_2Digit_num+0
	CALL       _SEGMENT_Display_2Digit+0
;Elec_water.c,244 :: 		}
	GOTO       L_main45
L_main46:
;Elec_water.c,246 :: 		}
L_main22:
;Elec_water.c,249 :: 		}
	GOTO       L_main16
L_main17:
;Elec_water.c,251 :: 		}
	GOTO       L_main8
;Elec_water.c,256 :: 		}
L_end_main:
	GOTO       $+0
; end of _main
